target datalayout = "e-m:e-p270:32:32-p271:32:32-p272:64:64-i64:64-i128:128-f80:128-n8:16:32:64-S128"
target triple = "x86_64-pc-linux-gnu"

%class.b3Vector3 = type { %union.anon }
%union.anon = type { [4 x float] }
%struct.b3RigidBodyData = type { %class.b3Vector3, %class.b3Quaternion, %class.b3Vector3, %class.b3Vector3, i32, float, float, float }
%class.b3Quaternion = type { %class.b3QuadWord }
%class.b3QuadWord = type { %union.anon.32 }
%union.anon.32 = type { [4 x float] }
%class.b3GpuNarrowPhase = type { ptr, ptr, i32, i32, i32, ptr, ptr, ptr }
%struct.b3GpuNarrowPhaseInternalData = type { ptr, %class.b3AlignedObjectArray, %class.b3AlignedObjectArray.0, %class.b3AlignedObjectArray.0, %class.b3AlignedObjectArray.2, ptr, ptr, ptr, ptr, ptr, ptr, ptr, ptr, ptr, %class.b3AlignedObjectArray.4, ptr, %class.b3AlignedObjectArray.6, ptr, ptr, ptr, [2 x ptr], i32, ptr, ptr, ptr, ptr, ptr, i32, i32, %class.b3AlignedObjectArray.8, ptr, ptr, ptr, %class.b3AlignedObjectArray.10, %class.b3AlignedObjectArray.12, %class.b3AlignedObjectArray.14, %class.b3AlignedObjectArray.16, %class.b3AlignedObjectArray.18, ptr, ptr, ptr, %struct.b3Config }
%class.b3AlignedObjectArray = type <{ [4 x i8], i32, i32, [4 x i8], ptr, i8, [7 x i8] }>
%class.b3AlignedObjectArray.0 = type <{ [4 x i8], i32, i32, [4 x i8], ptr, i8, [7 x i8] }>
%class.b3AlignedObjectArray.2 = type <{ [4 x i8], i32, i32, [4 x i8], ptr, i8, [7 x i8] }>
%class.b3AlignedObjectArray.4 = type <{ [4 x i8], i32, i32, [4 x i8], ptr, i8, [7 x i8] }>
%class.b3AlignedObjectArray.6 = type <{ [4 x i8], i32, i32, [4 x i8], ptr, i8, [7 x i8] }>
%class.b3AlignedObjectArray.8 = type <{ [4 x i8], i32, i32, [4 x i8], ptr, i8, [7 x i8] }>
%class.b3AlignedObjectArray.10 = type <{ [4 x i8], i32, i32, [4 x i8], ptr, i8, [7 x i8] }>
%class.b3AlignedObjectArray.12 = type <{ [4 x i8], i32, i32, [4 x i8], ptr, i8, [7 x i8] }>
%class.b3AlignedObjectArray.14 = type <{ [4 x i8], i32, i32, [4 x i8], ptr, i8, [7 x i8] }>
%class.b3AlignedObjectArray.16 = type <{ [4 x i8], i32, i32, [4 x i8], ptr, i8, [7 x i8] }>
%class.b3AlignedObjectArray.18 = type <{ [4 x i8], i32, i32, [4 x i8], ptr, i8, [7 x i8] }>
%struct.b3Config = type { i32, i32, i32, i32, i32, i32, i32, i32, i32, i32, i32, i32 }
%class.b3AlignedObjectArray.30 = type <{ [4 x i8], i32, i32, [4 x i8], ptr, i8, [7 x i8] }>
%class.b3OpenCLArray.46 = type <{ ptr, i64, i64, ptr, ptr, ptr, i8, i8, [6 x i8] }>

@.str = private unnamed_addr constant [17 x i8] c"b3Error[%s,%d]:\0A\00", align 1
@__clewFinish = external global ptr, align 8
@.str.11 = private unnamed_addr constant [146 x i8] c"generated/home/dtcxzyw/WorkSpace/Projects/compilers/llvm-opt-benchmark/bench/bullet3/bullet3/src/Bullet3OpenCL/ParallelPrimitives/b3OpenCLArray.h\00", align 1
@__clewEnqueueReadBuffer = external global ptr, align 8
@.str.13 = private unnamed_addr constant [33 x i8] c"copyToHostPointer invalid range\0A\00", align 1

; Function Attrs: inlinehint mustprogress nounwind uwtable
define linkonce_odr dso_local noundef i64 @_ZNK13b3OpenCLArrayI15b3RigidBodyDataE8capacityEv(ptr noundef nonnull align 8 dereferenceable(50) %0) #9 comdat align 2 {
  %2 = alloca ptr, align 8
  store ptr %0, ptr %2, align 8, !tbaa !215
  %3 = load ptr, ptr %2, align 8
  %4 = getelementptr inbounds nuw %class.b3OpenCLArray.46, ptr %3, i32 0, i32 2
  %5 = load i64, ptr %4, align 8, !tbaa !218
  ret i64 %5
}

; Function Attrs: mustprogress uwtable
define linkonce_odr dso_local void @_ZNK13b3OpenCLArrayI15b3RigidBodyDataE17copyToHostPointerEPS0_mmb(ptr noundef nonnull align 8 dereferenceable(50) %0, ptr noundef %1, i64 noundef %2, i64 noundef %3, i1 noundef zeroext %4) #0 comdat align 2 {
  %6 = alloca ptr, align 8
  %7 = alloca ptr, align 8
  %8 = alloca i64, align 8
  %9 = alloca i64, align 8
  %10 = alloca i8, align 1
  %11 = alloca i32, align 4
  store ptr %0, ptr %6, align 8, !tbaa !215
  store ptr %1, ptr %7, align 8, !tbaa !155
  store i64 %2, ptr %8, align 8, !tbaa !130
  store i64 %3, ptr %9, align 8, !tbaa !130
  %12 = zext i1 %4 to i8
  store i8 %12, ptr %10, align 1, !tbaa !132
  %13 = load ptr, ptr %6, align 8
  %14 = load i64, ptr %8, align 8, !tbaa !130
  %15 = load i64, ptr %9, align 8, !tbaa !130
  %16 = add i64 %14, %15
  %17 = call noundef i64 @_ZNK13b3OpenCLArrayI15b3RigidBodyDataE8capacityEv(ptr noundef nonnull align 8 dereferenceable(50) %13)
  %18 = icmp ule i64 %16, %17
  br i1 %18, label %19, label %39

19:                                               ; preds = %5
  call void @llvm.lifetime.start.p0(i64 4, ptr %11) #16
  store i32 0, ptr %11, align 4, !tbaa !85
  %20 = load ptr, ptr @__clewEnqueueReadBuffer, align 8, !tbaa !357
  %21 = getelementptr inbounds nuw %class.b3OpenCLArray.46, ptr %13, i32 0, i32 5
  %22 = load ptr, ptr %21, align 8, !tbaa !221
  %23 = getelementptr inbounds nuw %class.b3OpenCLArray.46, ptr %13, i32 0, i32 3
  %24 = load ptr, ptr %23, align 8, !tbaa !219
  %25 = load i64, ptr %9, align 8, !tbaa !130
  %26 = mul i64 80, %25
  %27 = load i64, ptr %8, align 8, !tbaa !130
  %28 = mul i64 80, %27
  %29 = load ptr, ptr %7, align 8, !tbaa !155
  %30 = call i32 %20(ptr noundef %22, ptr noundef %24, i32 noundef 0, i64 noundef %26, i64 noundef %28, ptr noundef %29, i32 noundef 0, ptr noundef null, ptr noundef null)
  store i32 %30, ptr %11, align 4, !tbaa !85
  %31 = load i8, ptr %10, align 1, !tbaa !132, !range !142, !noundef !143
  %32 = trunc i8 %31 to i1
  br i1 %32, label %33, label %38

33:                                               ; preds = %19
  %34 = load ptr, ptr @__clewFinish, align 8, !tbaa !357
  %35 = getelementptr inbounds nuw %class.b3OpenCLArray.46, ptr %13, i32 0, i32 5
  %36 = load ptr, ptr %35, align 8, !tbaa !221
  %37 = call i32 %34(ptr noundef %36)
  br label %38

38:                                               ; preds = %33, %19
  call void @llvm.lifetime.end.p0(i64 4, ptr %11) #16
  br label %42

39:                                               ; preds = %5
  br label %40

40:                                               ; preds = %39
  call void (ptr, ...) @b3OutputErrorMessageVarArgsInternal(ptr noundef @.str, ptr noundef @.str.11, i32 noundef 285)
  call void (ptr, ...) @b3OutputErrorMessageVarArgsInternal(ptr noundef @.str.13)
  br label %41

41:                                               ; preds = %40
  br label %42

42:                                               ; preds = %41, %38
  ret void
}

; Function Attrs: inlinehint mustprogress nounwind uwtable
define linkonce_odr dso_local noundef nonnull align 16 dereferenceable(80) ptr @_ZN20b3AlignedObjectArrayI15b3RigidBodyDataE2atEi(ptr noundef nonnull align 8 dereferenceable(25) %0, i32 noundef %1) #9 comdat align 2 {
  %3 = alloca ptr, align 8
  %4 = alloca i32, align 4
  store ptr %0, ptr %3, align 8, !tbaa !154
  store i32 %1, ptr %4, align 4, !tbaa !85
  %5 = load ptr, ptr %3, align 8
  %6 = getelementptr inbounds nuw %class.b3AlignedObjectArray.30, ptr %5, i32 0, i32 4
  %7 = load ptr, ptr %6, align 8, !tbaa !158
  %8 = load i32, ptr %4, align 4, !tbaa !85
  %9 = sext i32 %8 to i64
  %10 = getelementptr inbounds %struct.b3RigidBodyData, ptr %7, i64 %9
  ret ptr %10
}

; Function Attrs: mustprogress uwtable
define dso_local void @_ZN16b3GpuNarrowPhase22readbackAllBodiesToCpuEv(ptr noundef nonnull align 8 dereferenceable(56) %0) #0 align 2 {
  %2 = alloca ptr, align 8
  store ptr %0, ptr %2, align 8, !tbaa !4
  %3 = load ptr, ptr %2, align 8
  %4 = getelementptr inbounds nuw %class.b3GpuNarrowPhase, ptr %3, i32 0, i32 1
  %5 = load ptr, ptr %4, align 8, !tbaa !19
  %6 = getelementptr inbounds nuw %struct.b3GpuNarrowPhaseInternalData, ptr %5, i32 0, i32 24
  %7 = load ptr, ptr %6, align 8, !tbaa !102
  %8 = getelementptr inbounds nuw %class.b3GpuNarrowPhase, ptr %3, i32 0, i32 1
  %9 = load ptr, ptr %8, align 8, !tbaa !19
  %10 = getelementptr inbounds nuw %struct.b3GpuNarrowPhaseInternalData, ptr %9, i32 0, i32 23
  %11 = load ptr, ptr %10, align 8, !tbaa !91
  %12 = call noundef nonnull align 16 dereferenceable(80) ptr @_ZN20b3AlignedObjectArrayI15b3RigidBodyDataE2atEi(ptr noundef nonnull align 8 dereferenceable(25) %11, i32 noundef 0)
  %13 = getelementptr inbounds nuw %class.b3GpuNarrowPhase, ptr %3, i32 0, i32 1
  %14 = load ptr, ptr %13, align 8, !tbaa !19
  %15 = getelementptr inbounds nuw %struct.b3GpuNarrowPhaseInternalData, ptr %14, i32 0, i32 28
  %16 = load i32, ptr %15, align 4, !tbaa !124
  %17 = sext i32 %16 to i64
  call void @_ZNK13b3OpenCLArrayI15b3RigidBodyDataE17copyToHostPointerEPS0_mmb(ptr noundef nonnull align 8 dereferenceable(50) %7, ptr noundef %12, i64 noundef %17, i64 noundef 0, i1 noundef zeroext true)
  ret void
}