; Function Attrs: mustprogress uwtable
define dso_local void @_ZN16b3GpuNarrowPhase22readbackAllBodiesToCpuEv(ptr noundef nonnull readonly align 8 captures(none) dereferenceable(56) %0) local_unnamed_addr #0 align 2 {
  %2 = getelementptr inbounds nuw i8, ptr %0, i64 8
  %3 = load ptr, ptr %2, align 8, !tbaa !7
  %4 = getelementptr inbounds nuw i8, ptr %3, i64 344
  %5 = load ptr, ptr %4, align 8, !tbaa !136
  %6 = getelementptr inbounds nuw i8, ptr %3, i64 372
  %7 = load i32, ptr %6, align 4, !tbaa !192
  %8 = sext i32 %7 to i64
  %9 = getelementptr inbounds nuw i8, ptr %5, i64 16
  %10 = load i64, ptr %9, align 8, !tbaa !263
  %.not.i = icmp ult i64 %10, %8
  br i1 %.not.i, label %26, label %11

11:                                               ; preds = %1
  %12 = getelementptr inbounds nuw i8, ptr %3, i64 336
  %13 = load ptr, ptr %12, align 8, !tbaa !102
  %14 = getelementptr inbounds nuw i8, ptr %13, i64 16
  %15 = load ptr, ptr %14, align 8, !tbaa !99
  %16 = load ptr, ptr @__clewEnqueueReadBuffer, align 8, !tbaa !218
  %17 = getelementptr inbounds nuw i8, ptr %5, i64 40
  %18 = load ptr, ptr %17, align 8, !tbaa !258
  %19 = getelementptr inbounds nuw i8, ptr %5, i64 24
  %20 = load ptr, ptr %19, align 8, !tbaa !262
  %21 = mul nsw i64 %8, 80
  %22 = tail call i32 %16(ptr noundef %18, ptr noundef %20, i32 noundef 0, i64 noundef 0, i64 noundef %21, ptr noundef nonnull %15, i32 noundef 0, ptr noundef null, ptr noundef null)
  %23 = load ptr, ptr @__clewFinish, align 8, !tbaa !218
  %24 = load ptr, ptr %17, align 8, !tbaa !258
  %25 = tail call i32 %23(ptr noundef %24)
  br label %_ZNK13b3OpenCLArrayI15b3RigidBodyDataE17copyToHostPointerEPS0_mmb.exit

26:                                               ; preds = %1
  tail call void (ptr, ...) @b3OutputErrorMessageVarArgsInternal(ptr noundef nonnull @.str, ptr noundef nonnull @.str.11, i32 noundef 285)
  tail call void (ptr, ...) @b3OutputErrorMessageVarArgsInternal(ptr noundef nonnull @.str.13)
  br label %_ZNK13b3OpenCLArrayI15b3RigidBodyDataE17copyToHostPointerEPS0_mmb.exit

_ZNK13b3OpenCLArrayI15b3RigidBodyDataE17copyToHostPointerEPS0_mmb.exit: ; preds = %11, %26
  ret void
}